target datalayout = "e-m:e-p270:32:32-p271:32:32-p272:64:64-i64:64-i128:128-f80:128-n8:16:32:64-S128"
target triple = "x86_64-pc-linux-gnu"

%"class.std::__cxx11::basic_string" = type { %"struct.std::__cxx11::basic_string<char>::_Alloc_hider", i64, %union.anon }
%"struct.std::__cxx11::basic_string<char>::_Alloc_hider" = type { ptr }
%union.anon = type { i64, [8 x i8] }
%"struct.faiss::IOReader" = type { ptr, %"class.std::__cxx11::basic_string" }
%"class.std::vector" = type { %"struct.std::_Vector_base" }
%"struct.std::_Vector_base" = type { %"struct.std::_Vector_base<unsigned char, std::allocator<unsigned char>>::_Vector_impl" }
%"struct.std::_Vector_base<unsigned char, std::allocator<unsigned char>>::_Vector_impl" = type { %"struct.std::_Vector_base<unsigned char, std::allocator<unsigned char>>::_Vector_impl_data" }
%"struct.std::_Vector_base<unsigned char, std::allocator<unsigned char>>::_Vector_impl_data" = type { ptr, ptr, ptr }
%"struct.faiss::VectorIOReader" = type { %"struct.faiss::IOReader", %"class.std::vector", i64 }

; Function Attrs: mustprogress nounwind uwtable
define linkonce_odr noundef nonnull align 1 dereferenceable(1) ptr @_ZNSt6vectorIhSaIhEEixEm(ptr noundef nonnull align 8 dereferenceable(24) %0, i64 noundef %1) #1 comdat align 2 {
  %3 = alloca ptr, align 8
  %4 = alloca i64, align 8
  store ptr %0, ptr %3, align 8
  store i64 %1, ptr %4, align 8
  %5 = load ptr, ptr %3, align 8
  %6 = getelementptr inbounds %"struct.std::_Vector_base", ptr %5, i32 0, i32 0
  %7 = getelementptr inbounds %"struct.std::_Vector_base<unsigned char, std::allocator<unsigned char>>::_Vector_impl_data", ptr %6, i32 0, i32 0
  %8 = load ptr, ptr %7, align 8
  %9 = load i64, ptr %4, align 8
  %10 = getelementptr inbounds i8, ptr %8, i64 %9
  ret ptr %10
}

; Function Attrs: mustprogress nounwind uwtable
define linkonce_odr noundef i64 @_ZNKSt6vectorIhSaIhEE4sizeEv(ptr noundef nonnull align 8 dereferenceable(24) %0) #1 comdat align 2 {
  %2 = alloca ptr, align 8
  store ptr %0, ptr %2, align 8
  %3 = load ptr, ptr %2, align 8
  %4 = getelementptr inbounds %"struct.std::_Vector_base", ptr %3, i32 0, i32 0
  %5 = getelementptr inbounds %"struct.std::_Vector_base<unsigned char, std::allocator<unsigned char>>::_Vector_impl_data", ptr %4, i32 0, i32 1
  %6 = load ptr, ptr %5, align 8
  %7 = getelementptr inbounds %"struct.std::_Vector_base", ptr %3, i32 0, i32 0
  %8 = getelementptr inbounds %"struct.std::_Vector_base<unsigned char, std::allocator<unsigned char>>::_Vector_impl_data", ptr %7, i32 0, i32 0
  %9 = load ptr, ptr %8, align 8
  %10 = ptrtoint ptr %6 to i64
  %11 = ptrtoint ptr %9 to i64
  %12 = sub i64 %10, %11
  ret i64 %12
}

; Function Attrs: mustprogress nounwind uwtable
define noundef i64 @_ZN5faiss14VectorIOReaderclEPvmm(ptr noundef nonnull align 8 dereferenceable(72) %0, ptr noundef %1, i64 noundef %2, i64 noundef %3) unnamed_addr #1 align 2 {
  %5 = alloca i64, align 8
  %6 = alloca ptr, align 8
  %7 = alloca ptr, align 8
  %8 = alloca i64, align 8
  %9 = alloca i64, align 8
  %10 = alloca i64, align 8
  store ptr %0, ptr %6, align 8
  store ptr %1, ptr %7, align 8
  store i64 %2, ptr %8, align 8
  store i64 %3, ptr %9, align 8
  %11 = load ptr, ptr %6, align 8
  %12 = getelementptr inbounds %"struct.faiss::VectorIOReader", ptr %11, i32 0, i32 2
  %13 = load i64, ptr %12, align 8
  %14 = getelementptr inbounds %"struct.faiss::VectorIOReader", ptr %11, i32 0, i32 1
  %15 = call noundef i64 @_ZNKSt6vectorIhSaIhEE4sizeEv(ptr noundef nonnull align 8 dereferenceable(24) %14) #12
  %16 = icmp uge i64 %13, %15
  br i1 %16, label %17, label %18

17:                                               ; preds = %4
  store i64 0, ptr %5, align 8
  br label %53

18:                                               ; preds = %4
  %19 = getelementptr inbounds %"struct.faiss::VectorIOReader", ptr %11, i32 0, i32 1
  %20 = call noundef i64 @_ZNKSt6vectorIhSaIhEE4sizeEv(ptr noundef nonnull align 8 dereferenceable(24) %19) #12
  %21 = getelementptr inbounds %"struct.faiss::VectorIOReader", ptr %11, i32 0, i32 2
  %22 = load i64, ptr %21, align 8
  %23 = sub i64 %20, %22
  %24 = load i64, ptr %8, align 8
  %25 = udiv i64 %23, %24
  store i64 %25, ptr %10, align 8
  %26 = load i64, ptr %10, align 8
  %27 = load i64, ptr %9, align 8
  %28 = icmp ult i64 %26, %27
  br i1 %28, label %29, label %31

29:                                               ; preds = %18
  %30 = load i64, ptr %10, align 8
  store i64 %30, ptr %9, align 8
  br label %31

31:                                               ; preds = %29, %18
  %32 = load i64, ptr %8, align 8
  %33 = load i64, ptr %9, align 8
  %34 = mul i64 %32, %33
  %35 = icmp ugt i64 %34, 0
  br i1 %35, label %36, label %51

36:                                               ; preds = %31
  %37 = load ptr, ptr %7, align 8
  %38 = getelementptr inbounds %"struct.faiss::VectorIOReader", ptr %11, i32 0, i32 1
  %39 = getelementptr inbounds %"struct.faiss::VectorIOReader", ptr %11, i32 0, i32 2
  %40 = load i64, ptr %39, align 8
  %41 = call noundef nonnull align 1 dereferenceable(1) ptr @_ZNSt6vectorIhSaIhEEixEm(ptr noundef nonnull align 8 dereferenceable(24) %38, i64 noundef %40) #12
  %42 = load i64, ptr %8, align 8
  %43 = load i64, ptr %9, align 8
  %44 = mul i64 %42, %43
  call void @llvm.memcpy.p0.p0.i64(ptr align 1 %37, ptr align 1 %41, i64 %44, i1 false)
  %45 = load i64, ptr %8, align 8
  %46 = load i64, ptr %9, align 8
  %47 = mul i64 %45, %46
  %48 = getelementptr inbounds %"struct.faiss::VectorIOReader", ptr %11, i32 0, i32 2
  %49 = load i64, ptr %48, align 8
  %50 = add i64 %49, %47
  store i64 %50, ptr %48, align 8
  br label %51

51:                                               ; preds = %36, %31
  %52 = load i64, ptr %9, align 8
  store i64 %52, ptr %5, align 8
  br label %53

53:                                               ; preds = %51, %17
  %54 = load i64, ptr %5, align 8
  ret i64 %54
}