; Function Attrs: mustprogress nofree norecurse nosync nounwind willreturn memory(readwrite, inaccessiblemem: none) uwtable
define noundef i64 @_ZN5faiss14VectorIOReaderclEPvmm(ptr nocapture noundef nonnull align 8 dereferenceable(72) %0, ptr nocapture noundef writeonly %1, i64 noundef %2, i64 noundef %3) unnamed_addr #3 align 2 {
  %5 = getelementptr inbounds i8, ptr %0, i64 64
  %6 = load i64, ptr %5, align 8
  %7 = getelementptr inbounds i8, ptr %0, i64 40
  %8 = getelementptr inbounds i8, ptr %0, i64 48
  %9 = load ptr, ptr %8, align 8
  %10 = load ptr, ptr %7, align 8
  %11 = ptrtoint ptr %9 to i64
  %12 = ptrtoint ptr %10 to i64
  %13 = sub i64 %11, %12
  %.not = icmp ult i64 %6, %13
  br i1 %.not, label %14, label %22

14:                                               ; preds = %4
  %15 = sub i64 %13, %6
  %16 = udiv i64 %15, %2
  %spec.select = tail call i64 @llvm.umin.i64(i64 %16, i64 %3)
  %17 = mul i64 %spec.select, %2
  %.not17 = icmp eq i64 %17, 0
  br i1 %.not17, label %22, label %18

18:                                               ; preds = %14
  %19 = getelementptr inbounds i8, ptr %10, i64 %6
  tail call void @llvm.memcpy.p0.p0.i64(ptr align 1 %1, ptr nonnull align 1 %19, i64 %17, i1 false)
  %20 = load i64, ptr %5, align 8
  %21 = add i64 %20, %17
  store i64 %21, ptr %5, align 8
  br label %22

22:                                               ; preds = %14, %18, %4
  %.0 = phi i64 [ 0, %4 ], [ %spec.select, %18 ], [ %spec.select, %14 ]
  ret i64 %.0
}